target datalayout = "e-m:e-p270:32:32-p271:32:32-p272:64:64-i64:64-i128:128-f80:128-n8:16:32:64-S128"
target triple = "x86_64-pc-linux-gnu"

%struct.re_guts = type { ptr, ptr, ptr, i32, i32, i32, i32, i64, i64, i64, i32, i32, i32, ptr, i32, i32, i64, i64 }
%struct.lmat = type { ptr, i32, ptr, ptr, ptr, ptr, ptr, ptr, i64, ptr, ptr, ptr, ptr, ptr }

; Function Attrs: nounwind uwtable
define internal ptr @lslow(ptr noundef %0, ptr noundef %1, ptr noundef %2, i64 noundef %3, i64 noundef %4) #0 {
  %6 = alloca ptr, align 8
  %7 = alloca ptr, align 8
  %8 = alloca ptr, align 8
  %9 = alloca i64, align 8
  %10 = alloca i64, align 8
  %11 = alloca ptr, align 8
  %12 = alloca ptr, align 8
  %13 = alloca ptr, align 8
  %14 = alloca ptr, align 8
  %15 = alloca i32, align 4
  %16 = alloca i32, align 4
  %17 = alloca i32, align 4
  %18 = alloca i32, align 4
  %19 = alloca ptr, align 8
  store ptr %0, ptr %6, align 8
  store ptr %1, ptr %7, align 8
  store ptr %2, ptr %8, align 8
  store i64 %3, ptr %9, align 8
  store i64 %4, ptr %10, align 8
  %20 = load ptr, ptr %6, align 8
  %21 = getelementptr inbounds %struct.lmat, ptr %20, i32 0, i32 10
  %22 = load ptr, ptr %21, align 8
  store ptr %22, ptr %11, align 8
  %23 = load ptr, ptr %6, align 8
  %24 = getelementptr inbounds %struct.lmat, ptr %23, i32 0, i32 13
  %25 = load ptr, ptr %24, align 8
  store ptr %25, ptr %12, align 8
  %26 = load ptr, ptr %6, align 8
  %27 = getelementptr inbounds %struct.lmat, ptr %26, i32 0, i32 12
  %28 = load ptr, ptr %27, align 8
  store ptr %28, ptr %13, align 8
  %29 = load ptr, ptr %7, align 8
  store ptr %29, ptr %14, align 8
  %30 = load ptr, ptr %7, align 8
  %31 = load ptr, ptr %6, align 8
  %32 = getelementptr inbounds %struct.lmat, ptr %31, i32 0, i32 3
  %33 = load ptr, ptr %32, align 8
  %34 = icmp eq ptr %30, %33
  br i1 %34, label %47, label %35

35:                                               ; preds = %5
  %36 = load ptr, ptr %7, align 8
  %37 = load ptr, ptr %6, align 8
  %38 = getelementptr inbounds %struct.lmat, ptr %37, i32 0, i32 4
  %39 = load ptr, ptr %38, align 8
  %40 = icmp eq ptr %36, %39
  br i1 %40, label %41, label %48

41:                                               ; preds = %35
  %42 = load ptr, ptr %6, align 8
  %43 = getelementptr inbounds %struct.lmat, ptr %42, i32 0, i32 1
  %44 = load i32, ptr %43, align 8
  %45 = and i32 %44, 1
  %46 = icmp ne i32 %45, 0
  br i1 %46, label %48, label %47

47:                                               ; preds = %41, %5
  store i32 128, ptr %15, align 4
  br label %53

48:                                               ; preds = %41, %35
  %49 = load ptr, ptr %7, align 8
  %50 = getelementptr inbounds i8, ptr %49, i64 -1
  %51 = load i8, ptr %50, align 1
  %52 = sext i8 %51 to i32
  store i32 %52, ptr %15, align 4
  br label %53

53:                                               ; preds = %48, %47
  %54 = load ptr, ptr %11, align 8
  %55 = load ptr, ptr %6, align 8
  %56 = getelementptr inbounds %struct.lmat, ptr %55, i32 0, i32 0
  %57 = load ptr, ptr %56, align 8
  %58 = getelementptr inbounds %struct.re_guts, ptr %57, i32 0, i32 7
  %59 = load i64, ptr %58, align 8
  call void @llvm.memset.p0.i64(ptr align 1 %54, i8 0, i64 %59, i1 false)
  %60 = load ptr, ptr %11, align 8
  %61 = load i64, ptr %9, align 8
  %62 = getelementptr inbounds i8, ptr %60, i64 %61
  store i8 1, ptr %62, align 1
  %63 = load ptr, ptr %6, align 8
  %64 = getelementptr inbounds %struct.lmat, ptr %63, i32 0, i32 0
  %65 = load ptr, ptr %64, align 8
  %66 = load i64, ptr %9, align 8
  %67 = load i64, ptr %10, align 8
  %68 = load ptr, ptr %11, align 8
  %69 = load ptr, ptr %11, align 8
  %70 = call ptr @lstep(ptr noundef %65, i64 noundef %66, i64 noundef %67, ptr noundef %68, i32 noundef 132, ptr noundef %69)
  store ptr %70, ptr %11, align 8
  store ptr null, ptr %19, align 8
  br label %71

71:                                               ; preds = %277, %53
  %72 = load i32, ptr %15, align 4
  store i32 %72, ptr %16, align 4
  %73 = load ptr, ptr %14, align 8
  %74 = load ptr, ptr %6, align 8
  %75 = getelementptr inbounds %struct.lmat, ptr %74, i32 0, i32 5
  %76 = load ptr, ptr %75, align 8
  %77 = icmp eq ptr %73, %76
  br i1 %77, label %78, label %79

78:                                               ; preds = %71
  br label %83

79:                                               ; preds = %71
  %80 = load ptr, ptr %14, align 8
  %81 = load i8, ptr %80, align 1
  %82 = sext i8 %81 to i32
  br label %83

83:                                               ; preds = %79, %78
  %84 = phi i32 [ 128, %78 ], [ %82, %79 ]
  store i32 %84, ptr %15, align 4
  store i32 0, ptr %17, align 4
  store i32 0, ptr %18, align 4
  %85 = load i32, ptr %16, align 4
  %86 = icmp eq i32 %85, 10
  br i1 %86, label %87, label %95

87:                                               ; preds = %83
  %88 = load ptr, ptr %6, align 8
  %89 = getelementptr inbounds %struct.lmat, ptr %88, i32 0, i32 0
  %90 = load ptr, ptr %89, align 8
  %91 = getelementptr inbounds %struct.re_guts, ptr %90, i32 0, i32 6
  %92 = load i32, ptr %91, align 4
  %93 = and i32 %92, 8
  %94 = icmp ne i32 %93, 0
  br i1 %94, label %104, label %95

95:                                               ; preds = %87, %83
  %96 = load i32, ptr %16, align 4
  %97 = icmp eq i32 %96, 128
  br i1 %97, label %98, label %110

98:                                               ; preds = %95
  %99 = load ptr, ptr %6, align 8
  %100 = getelementptr inbounds %struct.lmat, ptr %99, i32 0, i32 1
  %101 = load i32, ptr %100, align 8
  %102 = and i32 %101, 1
  %103 = icmp ne i32 %102, 0
  br i1 %103, label %110, label %104

104:                                              ; preds = %98, %87
  store i32 129, ptr %17, align 4
  %105 = load ptr, ptr %6, align 8
  %106 = getelementptr inbounds %struct.lmat, ptr %105, i32 0, i32 0
  %107 = load ptr, ptr %106, align 8
  %108 = getelementptr inbounds %struct.re_guts, ptr %107, i32 0, i32 11
  %109 = load i32, ptr %108, align 4
  store i32 %109, ptr %18, align 4
  br label %110

110:                                              ; preds = %104, %98, %95
  %111 = load i32, ptr %15, align 4
  %112 = icmp eq i32 %111, 10
  br i1 %112, label %113, label %121

113:                                              ; preds = %110
  %114 = load ptr, ptr %6, align 8
  %115 = getelementptr inbounds %struct.lmat, ptr %114, i32 0, i32 0
  %116 = load ptr, ptr %115, align 8
  %117 = getelementptr inbounds %struct.re_guts, ptr %116, i32 0, i32 6
  %118 = load i32, ptr %117, align 4
  %119 = and i32 %118, 8
  %120 = icmp ne i32 %119, 0
  br i1 %120, label %130, label %121

121:                                              ; preds = %113, %110
  %122 = load i32, ptr %15, align 4
  %123 = icmp eq i32 %122, 128
  br i1 %123, label %124, label %141

124:                                              ; preds = %121
  %125 = load ptr, ptr %6, align 8
  %126 = getelementptr inbounds %struct.lmat, ptr %125, i32 0, i32 1
  %127 = load i32, ptr %126, align 8
  %128 = and i32 %127, 2
  %129 = icmp ne i32 %128, 0
  br i1 %129, label %141, label %130

130:                                              ; preds = %124, %113
  %131 = load i32, ptr %17, align 4
  %132 = icmp eq i32 %131, 129
  %133 = select i1 %132, i32 131, i32 130
  store i32 %133, ptr %17, align 4
  %134 = load ptr, ptr %6, align 8
  %135 = getelementptr inbounds %struct.lmat, ptr %134, i32 0, i32 0
  %136 = load ptr, ptr %135, align 8
  %137 = getelementptr inbounds %struct.re_guts, ptr %136, i32 0, i32 12
  %138 = load i32, ptr %137, align 8
  %139 = load i32, ptr %18, align 4
  %140 = add nsw i32 %139, %138
  store i32 %140, ptr %18, align 4
  br label %141

141:                                              ; preds = %130, %124, %121
  %142 = load i32, ptr %18, align 4
  %143 = icmp ne i32 %142, 0
  br i1 %143, label %144, label %162

144:                                              ; preds = %141
  br label %145

145:                                              ; preds = %158, %144
  %146 = load i32, ptr %18, align 4
  %147 = icmp sgt i32 %146, 0
  br i1 %147, label %148, label %161

148:                                              ; preds = %145
  %149 = load ptr, ptr %6, align 8
  %150 = getelementptr inbounds %struct.lmat, ptr %149, i32 0, i32 0
  %151 = load ptr, ptr %150, align 8
  %152 = load i64, ptr %9, align 8
  %153 = load i64, ptr %10, align 8
  %154 = load ptr, ptr %11, align 8
  %155 = load i32, ptr %17, align 4
  %156 = load ptr, ptr %11, align 8
  %157 = call ptr @lstep(ptr noundef %151, i64 noundef %152, i64 noundef %153, ptr noundef %154, i32 noundef %155, ptr noundef %156)
  store ptr %157, ptr %11, align 8
  br label %158

158:                                              ; preds = %148
  %159 = load i32, ptr %18, align 4
  %160 = add nsw i32 %159, -1
  store i32 %160, ptr %18, align 4
  br label %145

161:                                              ; preds = %145
  br label %162

162:                                              ; preds = %161, %141
  %163 = load i32, ptr %17, align 4
  %164 = icmp eq i32 %163, 129
  br i1 %164, label %182, label %165

165:                                              ; preds = %162
  %166 = load i32, ptr %16, align 4
  %167 = icmp ne i32 %166, 128
  br i1 %167, label %168, label %200

168:                                              ; preds = %165
  %169 = call ptr @__ctype_b_loc() #9
  %170 = load ptr, ptr %169, align 8
  %171 = load i32, ptr %16, align 4
  %172 = and i32 %171, 255
  %173 = sext i32 %172 to i64
  %174 = getelementptr inbounds i16, ptr %170, i64 %173
  %175 = load i16, ptr %174, align 2
  %176 = zext i16 %175 to i32
  %177 = and i32 %176, 8
  %178 = icmp ne i32 %177, 0
  br i1 %178, label %200, label %179

179:                                              ; preds = %168
  %180 = load i32, ptr %16, align 4
  %181 = icmp eq i32 %180, 95
  br i1 %181, label %200, label %182

182:                                              ; preds = %179, %162
  %183 = load i32, ptr %15, align 4
  %184 = icmp ne i32 %183, 128
  br i1 %184, label %185, label %200

185:                                              ; preds = %182
  %186 = call ptr @__ctype_b_loc() #9
  %187 = load ptr, ptr %186, align 8
  %188 = load i32, ptr %15, align 4
  %189 = and i32 %188, 255
  %190 = sext i32 %189 to i64
  %191 = getelementptr inbounds i16, ptr %187, i64 %190
  %192 = load i16, ptr %191, align 2
  %193 = zext i16 %192 to i32
  %194 = and i32 %193, 8
  %195 = icmp ne i32 %194, 0
  br i1 %195, label %199, label %196

196:                                              ; preds = %185
  %197 = load i32, ptr %15, align 4
  %198 = icmp eq i32 %197, 95
  br i1 %198, label %199, label %200

199:                                              ; preds = %196, %185
  store i32 133, ptr %17, align 4
  br label %200

200:                                              ; preds = %199, %196, %182, %179, %168, %165
  %201 = load i32, ptr %16, align 4
  %202 = icmp ne i32 %201, 128
  br i1 %202, label %203, label %238

203:                                              ; preds = %200
  %204 = call ptr @__ctype_b_loc() #9
  %205 = load ptr, ptr %204, align 8
  %206 = load i32, ptr %16, align 4
  %207 = and i32 %206, 255
  %208 = sext i32 %207 to i64
  %209 = getelementptr inbounds i16, ptr %205, i64 %208
  %210 = load i16, ptr %209, align 2
  %211 = zext i16 %210 to i32
  %212 = and i32 %211, 8
  %213 = icmp ne i32 %212, 0
  br i1 %213, label %217, label %214

214:                                              ; preds = %203
  %215 = load i32, ptr %16, align 4
  %216 = icmp eq i32 %215, 95
  br i1 %216, label %217, label %238

217:                                              ; preds = %214, %203
  %218 = load i32, ptr %17, align 4
  %219 = icmp eq i32 %218, 130
  br i1 %219, label %237, label %220

220:                                              ; preds = %217
  %221 = load i32, ptr %15, align 4
  %222 = icmp ne i32 %221, 128
  br i1 %222, label %223, label %238

223:                                              ; preds = %220
  %224 = call ptr @__ctype_b_loc() #9
  %225 = load ptr, ptr %224, align 8
  %226 = load i32, ptr %15, align 4
  %227 = and i32 %226, 255
  %228 = sext i32 %227 to i64
  %229 = getelementptr inbounds i16, ptr %225, i64 %228
  %230 = load i16, ptr %229, align 2
  %231 = zext i16 %230 to i32
  %232 = and i32 %231, 8
  %233 = icmp ne i32 %232, 0
  br i1 %233, label %238, label %234

234:                                              ; preds = %223
  %235 = load i32, ptr %15, align 4
  %236 = icmp eq i32 %235, 95
  br i1 %236, label %238, label %237

237:                                              ; preds = %234, %217
  store i32 134, ptr %17, align 4
  br label %238

238:                                              ; preds = %237, %234, %223, %220, %214, %200
  %239 = load i32, ptr %17, align 4
  %240 = icmp eq i32 %239, 133
  br i1 %240, label %244, label %241

241:                                              ; preds = %238
  %242 = load i32, ptr %17, align 4
  %243 = icmp eq i32 %242, 134
  br i1 %243, label %244, label %254

244:                                              ; preds = %241, %238
  %245 = load ptr, ptr %6, align 8
  %246 = getelementptr inbounds %struct.lmat, ptr %245, i32 0, i32 0
  %247 = load ptr, ptr %246, align 8
  %248 = load i64, ptr %9, align 8
  %249 = load i64, ptr %10, align 8
  %250 = load ptr, ptr %11, align 8
  %251 = load i32, ptr %17, align 4
  %252 = load ptr, ptr %11, align 8
  %253 = call ptr @lstep(ptr noundef %247, i64 noundef %248, i64 noundef %249, ptr noundef %250, i32 noundef %251, ptr noundef %252)
  store ptr %253, ptr %11, align 8
  br label %254

254:                                              ; preds = %244, %241
  %255 = load ptr, ptr %11, align 8
  %256 = load i64, ptr %10, align 8
  %257 = getelementptr inbounds i8, ptr %255, i64 %256
  %258 = load i8, ptr %257, align 1
  %259 = icmp ne i8 %258, 0
  br i1 %259, label %260, label %262

260:                                              ; preds = %254
  %261 = load ptr, ptr %14, align 8
  store ptr %261, ptr %19, align 8
  br label %262

262:                                              ; preds = %260, %254
  %263 = load ptr, ptr %11, align 8
  %264 = load ptr, ptr %12, align 8
  %265 = load ptr, ptr %6, align 8
  %266 = getelementptr inbounds %struct.lmat, ptr %265, i32 0, i32 0
  %267 = load ptr, ptr %266, align 8
  %268 = getelementptr inbounds %struct.re_guts, ptr %267, i32 0, i32 7
  %269 = load i64, ptr %268, align 8
  %270 = call i32 @memcmp(ptr noundef %263, ptr noundef %264, i64 noundef %269) #7
  %271 = icmp eq i32 %270, 0
  br i1 %271, label %276, label %272

272:                                              ; preds = %262
  %273 = load ptr, ptr %14, align 8
  %274 = load ptr, ptr %8, align 8
  %275 = icmp eq ptr %273, %274
  br i1 %275, label %276, label %277

276:                                              ; preds = %272, %262
  br label %303

277:                                              ; preds = %272
  %278 = load ptr, ptr %13, align 8
  %279 = load ptr, ptr %11, align 8
  %280 = load ptr, ptr %6, align 8
  %281 = getelementptr inbounds %struct.lmat, ptr %280, i32 0, i32 0
  %282 = load ptr, ptr %281, align 8
  %283 = getelementptr inbounds %struct.re_guts, ptr %282, i32 0, i32 7
  %284 = load i64, ptr %283, align 8
  call void @llvm.memcpy.p0.p0.i64(ptr align 1 %278, ptr align 1 %279, i64 %284, i1 false)
  %285 = load ptr, ptr %11, align 8
  %286 = load ptr, ptr %12, align 8
  %287 = load ptr, ptr %6, align 8
  %288 = getelementptr inbounds %struct.lmat, ptr %287, i32 0, i32 0
  %289 = load ptr, ptr %288, align 8
  %290 = getelementptr inbounds %struct.re_guts, ptr %289, i32 0, i32 7
  %291 = load i64, ptr %290, align 8
  call void @llvm.memcpy.p0.p0.i64(ptr align 1 %285, ptr align 1 %286, i64 %291, i1 false)
  %292 = load ptr, ptr %6, align 8
  %293 = getelementptr inbounds %struct.lmat, ptr %292, i32 0, i32 0
  %294 = load ptr, ptr %293, align 8
  %295 = load i64, ptr %9, align 8
  %296 = load i64, ptr %10, align 8
  %297 = load ptr, ptr %13, align 8
  %298 = load i32, ptr %15, align 4
  %299 = load ptr, ptr %11, align 8
  %300 = call ptr @lstep(ptr noundef %294, i64 noundef %295, i64 noundef %296, ptr noundef %297, i32 noundef %298, ptr noundef %299)
  store ptr %300, ptr %11, align 8
  %301 = load ptr, ptr %14, align 8
  %302 = getelementptr inbounds i8, ptr %301, i32 1
  store ptr %302, ptr %14, align 8
  br label %71

303:                                              ; preds = %276
  %304 = load ptr, ptr %19, align 8
  ret ptr %304
}