; Function Attrs: nofree nounwind memory(readwrite, inaccessiblemem: none) uwtable
define internal fastcc ptr @lslow(ptr nocapture noundef readonly %0, ptr noundef readonly %1, ptr noundef readnone %2, i64 noundef %3, i64 noundef %4) unnamed_addr #6 {
  %6 = getelementptr inbounds i8, ptr %0, i64 80
  %7 = load ptr, ptr %6, align 8
  %8 = getelementptr inbounds i8, ptr %0, i64 104
  %9 = load ptr, ptr %8, align 8
  %10 = getelementptr inbounds i8, ptr %0, i64 96
  %11 = load ptr, ptr %10, align 8
  %12 = getelementptr inbounds i8, ptr %0, i64 24
  %13 = load ptr, ptr %12, align 8
  %14 = icmp eq ptr %13, %1
  br i1 %14, label %27, label %15

15:                                               ; preds = %5
  %16 = getelementptr inbounds i8, ptr %0, i64 32
  %17 = load ptr, ptr %16, align 8
  %18 = icmp eq ptr %17, %1
  br i1 %18, label %19, label %23

19:                                               ; preds = %15
  %20 = getelementptr inbounds i8, ptr %0, i64 8
  %21 = load i32, ptr %20, align 8
  %22 = and i32 %21, 1
  %.not = icmp eq i32 %22, 0
  br i1 %.not, label %27, label %23

23:                                               ; preds = %19, %15
  %24 = getelementptr inbounds i8, ptr %1, i64 -1
  %25 = load i8, ptr %24, align 1
  %26 = sext i8 %25 to i32
  br label %27

27:                                               ; preds = %5, %19, %23
  %.0116 = phi i32 [ %26, %23 ], [ 128, %19 ], [ 128, %5 ]
  %28 = load ptr, ptr %0, align 8
  %29 = getelementptr inbounds i8, ptr %28, i64 40
  %30 = load i64, ptr %29, align 8
  tail call void @llvm.memset.p0.i64(ptr align 1 %7, i8 0, i64 %30, i1 false)
  %31 = getelementptr inbounds i8, ptr %7, i64 %3
  store i8 1, ptr %31, align 1
  %32 = load ptr, ptr %0, align 8
  %33 = tail call fastcc ptr @lstep(ptr noundef %32, i64 noundef %3, i64 noundef %4, ptr noundef %7, i32 noundef 132, ptr noundef %7)
  %34 = getelementptr inbounds i8, ptr %0, i64 40
  %35 = getelementptr inbounds i8, ptr %0, i64 8
  %36 = getelementptr inbounds i8, ptr %7, i64 %4
  br label %37

37:                                               ; preds = %128, %27
  %.0118 = phi ptr [ %1, %27 ], [ %134, %128 ]
  %.1117 = phi i32 [ %.0116, %27 ], [ %44, %128 ]
  %.0 = phi ptr [ null, %27 ], [ %spec.select132, %128 ]
  %38 = load ptr, ptr %34, align 8
  %39 = icmp eq ptr %.0118, %38
  br i1 %39, label %43, label %40

40:                                               ; preds = %37
  %41 = load i8, ptr %.0118, align 1
  %42 = sext i8 %41 to i32
  br label %43

43:                                               ; preds = %37, %40
  %44 = phi i32 [ %42, %40 ], [ 128, %37 ]
  switch i32 %.1117, label %57 [
    i32 10, label %45
    i32 128, label %50
  ]

45:                                               ; preds = %43
  %46 = load ptr, ptr %0, align 8
  %47 = getelementptr inbounds i8, ptr %46, i64 36
  %48 = load i32, ptr %47, align 4
  %49 = and i32 %48, 8
  %.not121 = icmp eq i32 %49, 0
  br i1 %.not121, label %57, label %53

50:                                               ; preds = %43
  %51 = load i32, ptr %35, align 8
  %52 = and i32 %51, 1
  %.not122 = icmp eq i32 %52, 0
  br i1 %.not122, label %._crit_edge, label %57

._crit_edge:                                      ; preds = %50
  %.pre = load ptr, ptr %0, align 8
  br label %53

53:                                               ; preds = %._crit_edge, %45
  %54 = phi ptr [ %.pre, %._crit_edge ], [ %46, %45 ]
  %55 = getelementptr inbounds i8, ptr %54, i64 68
  %56 = load i32, ptr %55, align 4
  br label %57

57:                                               ; preds = %45, %43, %53, %50
  %58 = phi i32 [ 131, %53 ], [ 130, %50 ], [ 130, %43 ], [ 130, %45 ]
  %.0109 = phi i32 [ 129, %53 ], [ 0, %50 ], [ 0, %43 ], [ 0, %45 ]
  %.0107 = phi i32 [ %56, %53 ], [ 0, %50 ], [ 0, %43 ], [ 0, %45 ]
  switch i32 %44, label %72 [
    i32 10, label %59
    i32 128, label %64
  ]

59:                                               ; preds = %57
  %60 = load ptr, ptr %0, align 8
  %61 = getelementptr inbounds i8, ptr %60, i64 36
  %62 = load i32, ptr %61, align 4
  %63 = and i32 %62, 8
  %.not123 = icmp eq i32 %63, 0
  br i1 %.not123, label %72, label %67

64:                                               ; preds = %57
  %65 = load i32, ptr %35, align 8
  %66 = and i32 %65, 2
  %.not124 = icmp eq i32 %66, 0
  br i1 %.not124, label %._crit_edge143, label %72

._crit_edge143:                                   ; preds = %64
  %.pre144 = load ptr, ptr %0, align 8
  br label %67

67:                                               ; preds = %._crit_edge143, %59
  %68 = phi ptr [ %.pre144, %._crit_edge143 ], [ %60, %59 ]
  %69 = getelementptr inbounds i8, ptr %68, i64 72
  %70 = load i32, ptr %69, align 8
  %71 = add nsw i32 %70, %.0107
  br label %72

72:                                               ; preds = %59, %57, %67, %64
  %.1110 = phi i32 [ %58, %67 ], [ %.0109, %64 ], [ %.0109, %57 ], [ %.0109, %59 ]
  %.1108 = phi i32 [ %71, %67 ], [ %.0107, %64 ], [ %.0107, %57 ], [ %.0107, %59 ]
  %73 = icmp sgt i32 %.1108, 0
  br i1 %73, label %.preheader, label %.loopexit

.preheader:                                       ; preds = %72, %.preheader
  %.2 = phi i32 [ %76, %.preheader ], [ %.1108, %72 ]
  %74 = load ptr, ptr %0, align 8
  %75 = tail call fastcc ptr @lstep(ptr noundef %74, i64 noundef %3, i64 noundef %4, ptr noundef %7, i32 noundef %.1110, ptr noundef %7)
  %76 = add nsw i32 %.2, -1
  %.old17 = icmp ugt i32 %.2, 1
  br i1 %.old17, label %.preheader, label %.loopexit

.loopexit:                                        ; preds = %.preheader, %72
  %77 = icmp eq i32 %.1110, 129
  br i1 %77, label %90, label %78

78:                                               ; preds = %.loopexit
  %.not125 = icmp eq i32 %.1117, 128
  br i1 %.not125, label %.thread, label %79

79:                                               ; preds = %78
  %80 = tail call ptr @__ctype_b_loc() #15
  %81 = load ptr, ptr %80, align 8
  %82 = and i32 %.1117, 255
  %83 = zext nneg i32 %82 to i64
  %84 = getelementptr inbounds i16, ptr %81, i64 %83
  %85 = load i16, ptr %84, align 2
  %86 = and i16 %85, 8
  %87 = icmp eq i16 %86, 0
  %88 = icmp ne i32 %.1117, 95
  %or.cond.not128 = select i1 %87, i1 %88, i1 false
  %89 = icmp ne i32 %44, 128
  %or.cond3 = select i1 %or.cond.not128, i1 %89, i1 false
  br i1 %or.cond3, label %91, label %.thread135

90:                                               ; preds = %.loopexit
  %.old2.not = icmp eq i32 %44, 128
  br i1 %.old2.not, label %100, label %._crit_edge145

._crit_edge145:                                   ; preds = %90
  %.pre151 = tail call ptr @__ctype_b_loc() #15
  br label %91

91:                                               ; preds = %._crit_edge145, %79
  %.pre-phi152 = phi ptr [ %.pre151, %._crit_edge145 ], [ %80, %79 ]
  %92 = load ptr, ptr %.pre-phi152, align 8
  %93 = and i32 %44, 255
  %94 = zext nneg i32 %93 to i64
  %95 = getelementptr inbounds i16, ptr %92, i64 %94
  %96 = load i16, ptr %95, align 2
  %97 = and i16 %96, 8
  %98 = icmp ne i16 %97, 0
  %99 = icmp eq i32 %44, 95
  %or.cond6 = select i1 %98, i1 true, i1 %99
  %spec.select = select i1 %or.cond6, i32 133, i32 %.1110
  br label %100

100:                                              ; preds = %91, %90
  %.2111 = phi i32 [ 129, %90 ], [ %spec.select, %91 ]
  %.not129 = icmp eq i32 %.1117, 128
  br i1 %.not129, label %.thread, label %..thread135_crit_edge

..thread135_crit_edge:                            ; preds = %100
  %.pre146 = tail call ptr @__ctype_b_loc() #15
  %.pre147 = and i32 %.1117, 255
  %.pre149 = zext nneg i32 %.pre147 to i64
  br label %.thread135

.thread135:                                       ; preds = %..thread135_crit_edge, %79
  %.pre-phi150 = phi i64 [ %.pre149, %..thread135_crit_edge ], [ %83, %79 ]
  %.pre-phi = phi ptr [ %.pre146, %..thread135_crit_edge ], [ %80, %79 ]
  %.2111138 = phi i32 [ %.2111, %..thread135_crit_edge ], [ %.1110, %79 ]
  %101 = load ptr, ptr %.pre-phi, align 8
  %102 = getelementptr inbounds i16, ptr %101, i64 %.pre-phi150
  %103 = load i16, ptr %102, align 2
  %104 = and i16 %103, 8
  %105 = icmp ne i16 %104, 0
  %106 = icmp eq i32 %.1117, 95
  %or.cond9 = select i1 %105, i1 true, i1 %106
  br i1 %or.cond9, label %107, label %.thread

107:                                              ; preds = %.thread135
  %108 = icmp eq i32 %.2111138, 130
  br i1 %108, label %.thread139, label %109

109:                                              ; preds = %107
  %.not130 = icmp eq i32 %44, 128
  br i1 %.not130, label %.thread, label %110

110:                                              ; preds = %109
  %111 = and i32 %44, 255
  %112 = zext nneg i32 %111 to i64
  %113 = getelementptr inbounds i16, ptr %101, i64 %112
  %114 = load i16, ptr %113, align 2
  %115 = and i16 %114, 8
  %116 = icmp ne i16 %115, 0
  %117 = icmp eq i32 %44, 95
  %or.cond12 = select i1 %116, i1 true, i1 %117
  br i1 %or.cond12, label %.thread, label %.thread139

.thread:                                          ; preds = %78, %.thread135, %110, %109, %100
  %.3 = phi i32 [ %.2111138, %110 ], [ %.2111138, %109 ], [ %.2111138, %.thread135 ], [ %.2111, %100 ], [ %.1110, %78 ]
  %118 = add i32 %.3, -133
  %or.cond15 = icmp ult i32 %118, 2
  br i1 %or.cond15, label %.thread139, label %121

.thread139:                                       ; preds = %110, %107, %.thread
  %.3142 = phi i32 [ %.3, %.thread ], [ 134, %107 ], [ 134, %110 ]
  %119 = load ptr, ptr %0, align 8
  %120 = tail call fastcc ptr @lstep(ptr noundef %119, i64 noundef %3, i64 noundef %4, ptr noundef %7, i32 noundef %.3142, ptr noundef %7)
  br label %121

121:                                              ; preds = %.thread, %.thread139
  %122 = load i8, ptr %36, align 1
  %.not131 = icmp eq i8 %122, 0
  %spec.select132 = select i1 %.not131, ptr %.0, ptr %.0118
  %123 = load ptr, ptr %0, align 8
  %124 = getelementptr inbounds i8, ptr %123, i64 40
  %125 = load i64, ptr %124, align 8
  %bcmp = tail call i32 @bcmp(ptr %7, ptr %9, i64 %125)
  %126 = icmp eq i32 %bcmp, 0
  %127 = icmp eq ptr %.0118, %2
  %or.cond = or i1 %127, %126
  br i1 %or.cond, label %135, label %128

128:                                              ; preds = %121
  tail call void @llvm.memcpy.p0.p0.i64(ptr align 1 %11, ptr nonnull align 1 %7, i64 %125, i1 false)
  %129 = load ptr, ptr %0, align 8
  %130 = getelementptr inbounds i8, ptr %129, i64 40
  %131 = load i64, ptr %130, align 8
  tail call void @llvm.memcpy.p0.p0.i64(ptr nonnull align 1 %7, ptr align 1 %9, i64 %131, i1 false)
  %132 = load ptr, ptr %0, align 8
  %133 = tail call fastcc ptr @lstep(ptr noundef %132, i64 noundef %3, i64 noundef %4, ptr noundef %11, i32 noundef %44, ptr noundef nonnull %7)
  %134 = getelementptr inbounds i8, ptr %.0118, i64 1
  br label %37

135:                                              ; preds = %121
  ret ptr %spec.select132
}